target datalayout = "e-m:e-p270:32:32-p271:32:32-p272:64:64-i64:64-i128:128-f80:128-n8:16:32:64-S128"
target triple = "x86_64-unknown-linux-gnu"

%"class.euf::ackerman" = type <{ ptr, ptr, %class.hashtable, ptr, ptr, i32, i32, i32, [4 x i8] }>
%class.hashtable = type { %class.core_hashtable.base, [4 x i8] }
%class.core_hashtable.base = type <{ ptr, i32, i32, i32 }>

; Function Attrs: mustprogress uwtable
define hidden noundef zeroext i1 @_ZN3euf8ackerman9enable_eqEP4exprS2_S2_(ptr noundef nonnull align 8 dereferenceable(68) %this, ptr noundef %a, ptr noundef %b, ptr noundef %c) #5 align 2 {
entry:
  %this.addr = alloca ptr, align 8
  %a.addr = alloca ptr, align 8
  %b.addr = alloca ptr, align 8
  %c.addr = alloca ptr, align 8
  store ptr %this, ptr %this.addr, align 8
  store ptr %a, ptr %a.addr, align 8
  store ptr %b, ptr %b.addr, align 8
  store ptr %c, ptr %c.addr, align 8
  %this1 = load ptr, ptr %this.addr, align 8
  %ctx = getelementptr inbounds %"class.euf::ackerman", ptr %this1, i32 0, i32 0
  %0 = load ptr, ptr %ctx, align 8
  %1 = load ptr, ptr %a.addr, align 8
  %call = call noundef zeroext i1 @_ZNK3euf6solver22enable_ackerman_axiomsEP4expr(ptr noundef nonnull align 8 dereferenceable(9136) %0, ptr noundef %1)
  br i1 %call, label %land.lhs.true, label %land.end

land.lhs.true:                                    ; preds = %entry
  %ctx2 = getelementptr inbounds %"class.euf::ackerman", ptr %this1, i32 0, i32 0
  %2 = load ptr, ptr %ctx2, align 8
  %3 = load ptr, ptr %b.addr, align 8
  %call3 = call noundef zeroext i1 @_ZNK3euf6solver22enable_ackerman_axiomsEP4expr(ptr noundef nonnull align 8 dereferenceable(9136) %2, ptr noundef %3)
  br i1 %call3, label %land.rhs, label %land.end

land.rhs:                                         ; preds = %land.lhs.true
  %ctx4 = getelementptr inbounds %"class.euf::ackerman", ptr %this1, i32 0, i32 0
  %4 = load ptr, ptr %ctx4, align 8
  %5 = load ptr, ptr %c.addr, align 8
  %call5 = call noundef zeroext i1 @_ZNK3euf6solver22enable_ackerman_axiomsEP4expr(ptr noundef nonnull align 8 dereferenceable(9136) %4, ptr noundef %5)
  br label %land.end

land.end:                                         ; preds = %land.rhs, %land.lhs.true, %entry
  %6 = phi i1 [ false, %land.lhs.true ], [ false, %entry ], [ %call5, %land.rhs ]
  ret i1 %6
}