; Function Attrs: mustprogress uwtable
define hidden noundef zeroext i1 @_ZN3euf8ackerman9enable_eqEP4exprS2_S2_(ptr nocapture noundef nonnull readonly align 8 dereferenceable(68) %this, ptr noundef %a, ptr noundef %b, ptr noundef %c) local_unnamed_addr #3 align 2 {
entry:
  %0 = load ptr, ptr %this, align 8
  %call = tail call noundef zeroext i1 @_ZNK3euf6solver22enable_ackerman_axiomsEP4expr(ptr noundef nonnull align 8 dereferenceable(9136) %0, ptr noundef %a)
  br i1 %call, label %land.lhs.true, label %land.end

land.lhs.true:                                    ; preds = %entry
  %1 = load ptr, ptr %this, align 8
  %call3 = tail call noundef zeroext i1 @_ZNK3euf6solver22enable_ackerman_axiomsEP4expr(ptr noundef nonnull align 8 dereferenceable(9136) %1, ptr noundef %b)
  br i1 %call3, label %land.rhs, label %land.end

land.rhs:                                         ; preds = %land.lhs.true
  %2 = load ptr, ptr %this, align 8
  %call5 = tail call noundef zeroext i1 @_ZNK3euf6solver22enable_ackerman_axiomsEP4expr(ptr noundef nonnull align 8 dereferenceable(9136) %2, ptr noundef %c)
  br label %land.end

land.end:                                         ; preds = %land.rhs, %land.lhs.true, %entry
  %3 = phi i1 [ false, %land.lhs.true ], [ false, %entry ], [ %call5, %land.rhs ]
  ret i1 %3
}